; Function Attrs: nounwind uwtable
define dso_local zeroext i1 @contain_var_clause(ptr noundef %0) local_unnamed_addr #0 {
  %2 = icmp eq ptr %0, null
  br i1 %2, label %contain_var_clause_walker.exit, label %3

3:                                                ; preds = %1
  %4 = load i32, ptr %0, align 4
  switch i32 %4, label %13 [
    i32 6, label %5
    i32 58, label %contain_var_clause_walker.exit
    i32 318, label %9
  ]

5:                                                ; preds = %3
  %6 = getelementptr inbounds nuw i8, ptr %0, i64 32
  %7 = load i32, ptr %6, align 8
  %8 = icmp eq i32 %7, 0
  br label %contain_var_clause_walker.exit

9:                                                ; preds = %3
  %10 = getelementptr inbounds nuw i8, ptr %0, i64 36
  %11 = load i32, ptr %10, align 4
  %12 = icmp eq i32 %11, 0
  br i1 %12, label %contain_var_clause_walker.exit, label %13

13:                                               ; preds = %9, %3
  %14 = tail call zeroext i1 @expression_tree_walker_impl(ptr noundef nonnull %0, ptr noundef nonnull @contain_var_clause_walker, ptr noundef null) #6
  br label %contain_var_clause_walker.exit

contain_var_clause_walker.exit:                   ; preds = %1, %3, %5, %9, %13
  %.0.i = phi i1 [ %14, %13 ], [ false, %1 ], [ %8, %5 ], [ true, %3 ], [ true, %9 ]
  ret i1 %.0.i
}